target datalayout = "e-m:e-p270:32:32-p271:32:32-p272:64:64-i64:64-i128:128-f80:128-n8:16:32:64-S128"
target triple = "x86_64-pc-linux-gnu"

%struct.x509_object_st = type { i32, %union.anon }
%union.anon = type { ptr }

; Function Attrs: inlinehint nounwind uwtable
define internal ptr @ossl_check_const_OPENSSL_STRING_sk_type(ptr noundef %0) #3 {
  %2 = alloca ptr, align 8
  store ptr %0, ptr %2, align 8, !tbaa !8
  %3 = load ptr, ptr %2, align 8, !tbaa !8
  ret ptr %3
}

; Function Attrs: nounwind uwtable
define internal i32 @by_store(ptr noundef %0, i32 noundef %1, ptr noundef %2, ptr noundef %3, ptr noundef %4, ptr noundef %5) #0 {
  %7 = alloca ptr, align 8
  %8 = alloca i32, align 4
  %9 = alloca ptr, align 8
  %10 = alloca ptr, align 8
  %11 = alloca ptr, align 8
  %12 = alloca ptr, align 8
  %13 = alloca ptr, align 8
  %14 = alloca i32, align 4
  %15 = alloca i32, align 4
  store ptr %0, ptr %7, align 8, !tbaa !3
  store i32 %1, ptr %8, align 4, !tbaa !10
  store ptr %2, ptr %9, align 8, !tbaa !24
  store ptr %3, ptr %10, align 8, !tbaa !20
  store ptr %4, ptr %11, align 8, !tbaa !22
  store ptr %5, ptr %12, align 8, !tbaa !12
  call void @llvm.lifetime.start.p0(i64 8, ptr %13) #4
  %16 = load ptr, ptr %7, align 8, !tbaa !3
  %17 = call ptr @X509_LOOKUP_get_method_data(ptr noundef %16)
  store ptr %17, ptr %13, align 8, !tbaa !8
  call void @llvm.lifetime.start.p0(i64 4, ptr %14) #4
  call void @llvm.lifetime.start.p0(i64 4, ptr %15) #4
  store i32 0, ptr %15, align 4, !tbaa !10
  store i32 0, ptr %14, align 4, !tbaa !10
  br label %18

18:                                               ; preds = %38, %6
  %19 = load i32, ptr %14, align 4, !tbaa !10
  %20 = load ptr, ptr %13, align 8, !tbaa !8
  %21 = call ptr @ossl_check_const_OPENSSL_STRING_sk_type(ptr noundef %20)
  %22 = call i32 @OPENSSL_sk_num(ptr noundef %21)
  %23 = icmp slt i32 %19, %22
  br i1 %23, label %24, label %41

24:                                               ; preds = %18
  %25 = load ptr, ptr %7, align 8, !tbaa !3
  %26 = load ptr, ptr %13, align 8, !tbaa !8
  %27 = call ptr @ossl_check_const_OPENSSL_STRING_sk_type(ptr noundef %26)
  %28 = load i32, ptr %14, align 4, !tbaa !10
  %29 = call ptr @OPENSSL_sk_value(ptr noundef %27, i32 noundef %28)
  %30 = load ptr, ptr %9, align 8, !tbaa !24
  %31 = load ptr, ptr %11, align 8, !tbaa !22
  %32 = load ptr, ptr %12, align 8, !tbaa !12
  %33 = call i32 @cache_objects(ptr noundef %25, ptr noundef %29, ptr noundef %30, i32 noundef 1, ptr noundef %31, ptr noundef %32)
  store i32 %33, ptr %15, align 4, !tbaa !10
  %34 = load i32, ptr %15, align 4, !tbaa !10
  %35 = icmp ne i32 %34, 0
  br i1 %35, label %36, label %37

36:                                               ; preds = %24
  br label %41

37:                                               ; preds = %24
  br label %38

38:                                               ; preds = %37
  %39 = load i32, ptr %14, align 4, !tbaa !10
  %40 = add nsw i32 %39, 1
  store i32 %40, ptr %14, align 4, !tbaa !10
  br label %18, !llvm.loop !30

41:                                               ; preds = %36, %18
  %42 = load i32, ptr %15, align 4, !tbaa !10
  call void @llvm.lifetime.end.p0(i64 4, ptr %15) #4
  call void @llvm.lifetime.end.p0(i64 4, ptr %14) #4
  call void @llvm.lifetime.end.p0(i64 8, ptr %13) #4
  ret i32 %42
}

; Function Attrs: nounwind uwtable
define internal i32 @by_store_subject_ex(ptr noundef %0, i32 noundef %1, ptr noundef %2, ptr noundef %3, ptr noundef %4, ptr noundef %5) #0 {
  %7 = alloca ptr, align 8
  %8 = alloca i32, align 4
  %9 = alloca ptr, align 8
  %10 = alloca ptr, align 8
  %11 = alloca ptr, align 8
  %12 = alloca ptr, align 8
  %13 = alloca ptr, align 8
  %14 = alloca i32, align 4
  %15 = alloca ptr, align 8
  %16 = alloca ptr, align 8
  store ptr %0, ptr %7, align 8, !tbaa !3
  store i32 %1, ptr %8, align 4, !tbaa !10
  store ptr %2, ptr %9, align 8, !tbaa !18
  store ptr %3, ptr %10, align 8, !tbaa !20
  store ptr %4, ptr %11, align 8, !tbaa !22
  store ptr %5, ptr %12, align 8, !tbaa !12
  call void @llvm.lifetime.start.p0(i64 8, ptr %13) #4
  %17 = load ptr, ptr %9, align 8, !tbaa !18
  %18 = call ptr @OSSL_STORE_SEARCH_by_name(ptr noundef %17)
  store ptr %18, ptr %13, align 8, !tbaa !24
  call void @llvm.lifetime.start.p0(i64 4, ptr %14) #4
  %19 = load ptr, ptr %7, align 8, !tbaa !3
  %20 = load i32, ptr %8, align 4, !tbaa !10
  %21 = load ptr, ptr %13, align 8, !tbaa !24
  %22 = load ptr, ptr %10, align 8, !tbaa !20
  %23 = load ptr, ptr %11, align 8, !tbaa !22
  %24 = load ptr, ptr %12, align 8, !tbaa !12
  %25 = call i32 @by_store(ptr noundef %19, i32 noundef %20, ptr noundef %21, ptr noundef %22, ptr noundef %23, ptr noundef %24)
  store i32 %25, ptr %14, align 4, !tbaa !10
  call void @llvm.lifetime.start.p0(i64 8, ptr %15) #4
  %26 = load ptr, ptr %7, align 8, !tbaa !3
  %27 = call ptr @X509_LOOKUP_get_store(ptr noundef %26)
  %28 = call ptr @X509_STORE_get0_objects(ptr noundef %27)
  store ptr %28, ptr %15, align 8, !tbaa !26
  call void @llvm.lifetime.start.p0(i64 8, ptr %16) #4
  store ptr null, ptr %16, align 8, !tbaa !20
  %29 = load ptr, ptr %13, align 8, !tbaa !24
  call void @OSSL_STORE_SEARCH_free(ptr noundef %29)
  %30 = load i32, ptr %14, align 4, !tbaa !10
  %31 = icmp ne i32 %30, 0
  br i1 %31, label %32, label %37

32:                                               ; preds = %6
  %33 = load ptr, ptr %15, align 8, !tbaa !26
  %34 = load i32, ptr %8, align 4, !tbaa !10
  %35 = load ptr, ptr %9, align 8, !tbaa !18
  %36 = call ptr @X509_OBJECT_retrieve_by_subject(ptr noundef %33, i32 noundef %34, ptr noundef %35)
  store ptr %36, ptr %16, align 8, !tbaa !20
  br label %37

37:                                               ; preds = %32, %6
  store i32 0, ptr %14, align 4, !tbaa !10
  %38 = load ptr, ptr %16, align 8, !tbaa !20
  %39 = icmp ne ptr %38, null
  br i1 %39, label %40, label %69

40:                                               ; preds = %37
  %41 = load i32, ptr %8, align 4, !tbaa !10
  switch i32 %41, label %68 [
    i32 1, label %42
    i32 2, label %55
    i32 0, label %68
  ]

42:                                               ; preds = %40
  %43 = load ptr, ptr %10, align 8, !tbaa !20
  %44 = load ptr, ptr %16, align 8, !tbaa !20
  %45 = getelementptr inbounds nuw %struct.x509_object_st, ptr %44, i32 0, i32 1
  %46 = load ptr, ptr %45, align 8, !tbaa !28
  %47 = call i32 @X509_OBJECT_set1_X509(ptr noundef %43, ptr noundef %46)
  store i32 %47, ptr %14, align 4, !tbaa !10
  %48 = load i32, ptr %14, align 4, !tbaa !10
  %49 = icmp ne i32 %48, 0
  br i1 %49, label %50, label %54

50:                                               ; preds = %42
  %51 = load ptr, ptr %16, align 8, !tbaa !20
  %52 = getelementptr inbounds nuw %struct.x509_object_st, ptr %51, i32 0, i32 1
  %53 = load ptr, ptr %52, align 8, !tbaa !28
  call void @X509_free(ptr noundef %53)
  br label %54

54:                                               ; preds = %50, %42
  br label %68

55:                                               ; preds = %40
  %56 = load ptr, ptr %10, align 8, !tbaa !20
  %57 = load ptr, ptr %16, align 8, !tbaa !20
  %58 = getelementptr inbounds nuw %struct.x509_object_st, ptr %57, i32 0, i32 1
  %59 = load ptr, ptr %58, align 8, !tbaa !28
  %60 = call i32 @X509_OBJECT_set1_X509_CRL(ptr noundef %56, ptr noundef %59)
  store i32 %60, ptr %14, align 4, !tbaa !10
  %61 = load i32, ptr %14, align 4, !tbaa !10
  %62 = icmp ne i32 %61, 0
  br i1 %62, label %63, label %67

63:                                               ; preds = %55
  %64 = load ptr, ptr %16, align 8, !tbaa !20
  %65 = getelementptr inbounds nuw %struct.x509_object_st, ptr %64, i32 0, i32 1
  %66 = load ptr, ptr %65, align 8, !tbaa !28
  call void @X509_CRL_free(ptr noundef %66)
  br label %67

67:                                               ; preds = %63, %55
  br label %68

68:                                               ; preds = %40, %40, %67, %54
  br label %69

69:                                               ; preds = %68, %37
  %70 = load i32, ptr %14, align 4, !tbaa !10
  call void @llvm.lifetime.end.p0(i64 8, ptr %16) #4
  call void @llvm.lifetime.end.p0(i64 8, ptr %15) #4
  call void @llvm.lifetime.end.p0(i64 4, ptr %14) #4
  call void @llvm.lifetime.end.p0(i64 8, ptr %13) #4
  ret i32 %70
}